; Function Attrs: mustprogress uwtable
define hidden void @_ZNK2cv11MatOp_Solve6assignERKNS_7MatExprERNS_3MatEi(ptr nocapture nonnull readnone align 8 %0, ptr noundef nonnull align 8 dereferenceable(352) %1, ptr noundef nonnull align 8 dereferenceable(96) %2, i32 noundef %3) unnamed_addr #8 align 2 personality ptr @__gxx_personality_v0 {
  %5 = alloca %"class.cv::Mat", align 8
  %6 = alloca %"class.cv::_InputArray", align 8
  %7 = alloca %"class.cv::_InputArray", align 8
  %8 = alloca %"class.cv::_OutputArray", align 8
  %9 = alloca %"class.cv::_OutputArray", align 8
  call void @_ZN2cv3MatC1Ev(ptr noundef nonnull align 8 dereferenceable(96) %5) #21
  %10 = icmp eq i32 %3, -1
  %.sroa.gep = getelementptr inbounds i8, ptr %2, i64 16
  br i1 %10, label %16, label %11

11:                                               ; preds = %4
  %.sroa.gep22 = getelementptr inbounds i8, ptr %5, i64 16
  %12 = getelementptr inbounds i8, ptr %1, i64 16
  %13 = load i32, ptr %12, align 8
  %14 = and i32 %13, 4095
  %15 = icmp eq i32 %14, %3
  br i1 %15, label %16, label %17

16:                                               ; preds = %11, %4
  br label %17

17:                                               ; preds = %16, %11
  %.sroa.phi = phi ptr [ %.sroa.gep, %16 ], [ %.sroa.gep22, %11 ]
  %18 = phi ptr [ %2, %16 ], [ %5, %11 ]
  %19 = getelementptr inbounds i8, ptr %1, i64 16
  %20 = getelementptr inbounds i8, ptr %6, i64 16
  store i32 0, ptr %20, align 8
  %21 = getelementptr inbounds i8, ptr %6, i64 20
  store i32 0, ptr %21, align 4
  store i32 16842752, ptr %6, align 8
  %22 = getelementptr inbounds i8, ptr %6, i64 8
  store ptr %19, ptr %22, align 8
  %23 = getelementptr inbounds i8, ptr %1, i64 112
  %24 = getelementptr inbounds i8, ptr %7, i64 16
  store i32 0, ptr %24, align 8
  %25 = getelementptr inbounds i8, ptr %7, i64 20
  store i32 0, ptr %25, align 4
  store i32 16842752, ptr %7, align 8
  %26 = getelementptr inbounds i8, ptr %7, i64 8
  store ptr %23, ptr %26, align 8
  %27 = getelementptr inbounds i8, ptr %8, i64 8
  %28 = getelementptr inbounds i8, ptr %8, i64 16
  store i64 0, ptr %28, align 8
  store i32 33619968, ptr %8, align 8
  store ptr %18, ptr %27, align 8
  %29 = getelementptr inbounds i8, ptr %1, i64 8
  %30 = load i32, ptr %29, align 8
  %31 = invoke noundef zeroext i1 @_ZN2cv5solveERKNS_11_InputArrayES2_RKNS_12_OutputArrayEi(ptr noundef nonnull align 8 dereferenceable(24) %6, ptr noundef nonnull align 8 dereferenceable(24) %7, ptr noundef nonnull align 8 dereferenceable(24) %8, i32 noundef %30)
          to label %32 unwind label %38

32:                                               ; preds = %17
  %33 = load ptr, ptr %.sroa.phi, align 8
  %34 = load ptr, ptr %.sroa.gep, align 8
  %.not = icmp eq ptr %33, %34
  br i1 %.not, label %42, label %35

35:                                               ; preds = %32
  %36 = getelementptr inbounds i8, ptr %9, i64 8
  %37 = getelementptr inbounds i8, ptr %9, i64 16
  store i64 0, ptr %37, align 8
  store i32 33619968, ptr %9, align 8
  store ptr %2, ptr %36, align 8
  invoke void @_ZNK2cv3Mat9convertToERKNS_12_OutputArrayEidd(ptr noundef nonnull align 8 dereferenceable(96) %18, ptr noundef nonnull align 8 dereferenceable(24) %9, i32 noundef %3, double noundef 1.000000e+00, double noundef 0.000000e+00)
          to label %42 unwind label %40

38:                                               ; preds = %17
  %39 = landingpad { ptr, i32 }
          cleanup
  br label %43

40:                                               ; preds = %35
  %41 = landingpad { ptr, i32 }
          cleanup
  br label %43

42:                                               ; preds = %35, %32
  call void @_ZN2cv3MatD1Ev(ptr noundef nonnull align 8 dereferenceable(96) %5) #21
  ret void

43:                                               ; preds = %38, %40
  %.pn20 = phi { ptr, i32 } [ %41, %40 ], [ %39, %38 ]
  call void @_ZN2cv3MatD1Ev(ptr noundef nonnull align 8 dereferenceable(96) %5) #21
  resume { ptr, i32 } %.pn20
}